; Function Attrs: uwtable
define noundef range(i32 -1, 1) i32 @_ZTv0_n64_N3zmq16null_mechanism_t17zap_msg_availableEv(ptr noundef %0) unnamed_addr #9 align 2 {
  %2 = load ptr, ptr %0, align 8, !tbaa !3
  %3 = getelementptr inbounds i8, ptr %2, i64 -64
  %4 = load i64, ptr %3, align 8
  %5 = getelementptr inbounds i8, ptr %0, i64 %4
  %6 = getelementptr inbounds nuw i8, ptr %5, i64 77
  %7 = load i8, ptr %6, align 1, !tbaa !23, !range !18, !noundef !19
  %8 = trunc nuw i8 %7 to i1
  br i1 %8, label %9, label %11

9:                                                ; preds = %1
  %10 = tail call ptr @__errno_location() #20
  store i32 156384763, ptr %10, align 4, !tbaa !21
  br label %_ZN3zmq16null_mechanism_t17zap_msg_availableEv.exit

11:                                               ; preds = %1
  %12 = tail call noundef i32 @_ZN3zmq12zap_client_t29receive_and_process_zap_replyEv(ptr noundef nonnull align 8 dereferenceable(1576) %5)
  %13 = icmp eq i32 %12, 0
  br i1 %13, label %14, label %15

14:                                               ; preds = %11
  store i8 1, ptr %6, align 1, !tbaa !23
  br label %15

15:                                               ; preds = %14, %11
  %16 = icmp eq i32 %12, -1
  %17 = sext i1 %16 to i32
  br label %_ZN3zmq16null_mechanism_t17zap_msg_availableEv.exit

_ZN3zmq16null_mechanism_t17zap_msg_availableEv.exit: ; preds = %9, %15
  %.0.i = phi i32 [ -1, %9 ], [ %17, %15 ]
  ret i32 %.0.i
}